Certificate:
    Data:
        Version: 3 (0x2)
        Serial Number: 836 (0x344)
        Signature Algorithm: md5WithRSAEncryption
        Issuer: C=EC, ST=CA, L=Quito, O=Kito/emailAddress=mail@host.domain
        Validity
            Not Before: Feb 29 05:04:11 2016 GMT
            Not After : Nov 25 05:04:11 2018 GMT
        Subject: C=RU, ST=W, O=Unknown, CN=voshod-avto.ru/emailAddress=a.kurilin@voshod-avto.ru
        Subject Public Key Info:
            Public Key Algorithm: rsaEncryption
                Public-Key: (1024 bit)
                Modulus:
                    00:d0:9e:b9:e9:e2:75:b9:02:b7:e9:67:27:85:b2:
                    d9:e7:66:6d:e7:59:4e:3d:11:7b:a7:39:25:7e:e0:
                    8b:97:1e:24:61:09:ce:34:5b:84:e8:79:3e:b2:4d:
                    97:ec:27:7d:eb:b2:34:b1:75:13:e6:17:a8:6c:4f:
                    cd:d7:3d:fd:4e:d9:88:c0:30:a0:f6:ca:2e:21:59:
                    08:f7:f2:08:a1:79:cd:e3:10:9f:e0:25:3c:1b:d1:
                    88:60:c1:05:8f:c0:5a:21:fa:f3:4c:7d:df:78:79:
                    15:7e:59:aa:d6:e1:ef:90:97:ab:0f:b8:e3:f6:1d:
                    ce:85:e0:3a:29:07:c4:36:9d
                Exponent: 65537 (0x10001)
        X509v3 extensions:
            X509v3 Basic Constraints: 
                CA:FALSE
            Netscape Comment: 
                OpenSSL Generated Certificate
            X509v3 Subject Key Identifier: 
                49:51:1C:9F:8E:2F:94:B0:74:BC:F7:47:07:54:F0:42:5E:11:B6:58
            X509v3 Authority Key Identifier: 
                keyid:32:A4:BB:A2:68:DC:F9:AC:A7:DD:B5:50:11:E1:07:E7:AA:91:5B:1A
                DirName:/C=EC/ST=CA/L=Quito/O=Kito/emailAddress=mail@host.domain
                serial:89:61:A4:76:FB:A1:72:38

    Signature Algorithm: md5WithRSAEncryption
        6f:0f:bd:cc:9e:87:b7:ed:bc:f3:d2:31:40:97:ba:71:1b:e2:
        27:0f:73:ae:8f:c9:5d:22:1e:c1:4d:8b:0c:cf:7a:3c:7f:a1:
        82:8b:84:0b:b3:5b:af:79:6f:22:ea:83:c7:50:f7:80:ec:97:
        48:ca:10:11:e9:4d:57:b7:59:8e:05:3a:0f:1b:da:74:a9:7a:
        f2:e7:40:e4:7d:5d:4c:cc:69:8e:12:99:84:73:04:95:2d:4b:
        fe:be:86:51:d2:a7:1a:df:fd:d8:19:ac:5f:9e:9d:74:7e:c1:
        86:d7:93:87:e0:b1:a3:37:49:4c:37:7e:80:7f:96:6b:59:c6:
        69:66
-----BEGIN CERTIFICATE-----
MIIDKTCCApKgAwIBAgICA0QwDQYJKoZIhvcNAQEEBQAwWjELMAkGA1UEBhMCRUMx
CzAJBgNVBAgTAkNBMQ4wDAYDVQQHEwVRdWl0bzENMAsGA1UEChMES2l0bzEfMB0G
CSqGSIb3DQEJARYQbWFpbEBob3N0LmRvbWFpbjAeFw0xNjAyMjkwNTA0MTFaFw0x
ODExMjUwNTA0MTFaMG0xCzAJBgNVBAYTAlJVMQowCAYDVQQIEwFXMRAwDgYDVQQK
EwdVbmtub3duMRcwFQYDVQQDEw52b3Nob2QtYXZ0by5ydTEnMCUGCSqGSIb3DQEJ
ARYYYS5rdXJpbGluQHZvc2hvZC1hdnRvLnJ1MIGfMA0GCSqGSIb3DQEBAQUAA4GN
ADCBiQKBgQDQnrnp4nW5ArfpZyeFstnnZm3nWU49EXunOSV+4IuXHiRhCc40W4To
eT6yTZfsJ33rsjSxdRPmF6hsT83XPf1O2YjAMKD2yi4hWQj38gihec3jEJ/gJTwb
0YhgwQWPwFoh+vNMfd94eRV+WarW4e+Ql6sPuOP2Hc6F4DopB8Q2nQIDAQABo4Hq
MIHnMAkGA1UdEwQCMAAwLAYJYIZIAYb4QgENBB8WHU9wZW5TU0wgR2VuZXJhdGVk
IENlcnRpZmljYXRlMB0GA1UdDgQWBBRJURyfji+UsHS890cHVPBCXhG2WDCBjAYD
VR0jBIGEMIGBgBQypLuiaNz5rKfdtVAR4QfnqpFbGqFepFwwWjELMAkGA1UEBhMC
RUMxCzAJBgNVBAgTAkNBMQ4wDAYDVQQHEwVRdWl0bzENMAsGA1UEChMES2l0bzEf
MB0GCSqGSIb3DQEJARYQbWFpbEBob3N0LmRvbWFpboIJAIlhpHb7oXI4MA0GCSqG
SIb3DQEBBAUAA4GBAG8Pvcyeh7ftvPPSMUCXunEb4icPc66PyV0iHsFNiwzPejx/
oYKLhAuzW695byLqg8dQ94Dsl0jKEBHpTVe3WY4FOg8b2nSpevLnQOR9XUzMaY4S
mYRzBJUtS/6+hlHSpxrf/dgZrF+enXR+wYbXk4fgsaM3SUw3foB/lmtZxmlm
-----END CERTIFICATE-----
