Certificate:
    Data:
        Version: 3 (0x2)
        Serial Number: 578 (0x242)
        Signature Algorithm: md5WithRSAEncryption
        Issuer: C=EC, ST=CA, L=Quito, O=Kito/emailAddress=mail@host.domain
        Validity
            Not Before: Mar 18 16:40:35 2015 GMT
            Not After : Mar 17 16:40:35 2016 GMT
        Subject: C=RU, ST=W5, O=VoshodAvto, CN=voshod-avto.ru/emailAddress=a.kurilin@voshod-avto.ru
        Subject Public Key Info:
            Public Key Algorithm: rsaEncryption
                Public-Key: (1024 bit)
                Modulus:
                    00:bd:66:43:0b:9a:d0:9c:b5:41:69:d5:eb:07:16:
                    72:a2:85:5b:ba:3d:c7:06:af:9e:26:9b:74:40:8f:
                    df:43:27:3b:95:37:b8:eb:25:f7:34:96:43:f9:64:
                    a6:e2:d8:9a:01:47:80:01:e6:8a:eb:48:fa:fd:df:
                    6e:60:a4:7e:45:9a:57:9c:83:b5:e9:ce:48:76:0e:
                    24:53:ca:20:47:bc:81:ad:68:cb:a8:e8:30:76:d8:
                    61:62:fd:cf:00:09:98:be:5b:37:96:31:da:86:a3:
                    10:3f:4f:6b:ab:d2:e1:ca:8c:18:5f:66:e1:b5:5c:
                    04:2f:c3:14:71:01:8e:6f:99
                Exponent: 65537 (0x10001)
        X509v3 extensions:
            X509v3 Basic Constraints: 
                CA:FALSE
            Netscape Comment: 
                OpenSSL Generated Certificate
            X509v3 Subject Key Identifier: 
                EC:24:6D:5B:AD:57:14:0C:6D:34:B8:AB:1E:9F:EA:7E:9D:0D:06:0D
            X509v3 Authority Key Identifier: 
                keyid:32:A4:BB:A2:68:DC:F9:AC:A7:DD:B5:50:11:E1:07:E7:AA:91:5B:1A
                DirName:/C=EC/ST=CA/L=Quito/O=Kito/emailAddress=mail@host.domain
                serial:89:61:A4:76:FB:A1:72:38

    Signature Algorithm: md5WithRSAEncryption
        65:97:f4:9a:59:5d:60:43:1a:d2:1b:9e:73:c6:ed:2b:30:3d:
        d2:c4:42:32:b9:73:7a:5e:9a:fc:aa:be:f1:a7:4c:80:4f:db:
        98:8a:fd:2b:79:7a:a3:4c:29:5b:00:3d:35:0e:af:e1:8a:3f:
        93:c1:4b:cd:18:4e:35:f9:c8:9e:3b:22:47:b0:88:9d:29:ff:
        68:3e:be:bb:d9:5c:39:23:52:57:51:29:4d:41:99:ea:58:03:
        23:ef:84:61:f3:3a:14:65:c6:4b:67:1b:63:19:ab:7a:cc:8a:
        9d:43:eb:18:55:8c:97:85:b5:a1:7d:62:fd:d0:ed:19:cc:fd:
        67:c9
-----BEGIN CERTIFICATE-----
MIIDLTCCApagAwIBAgICAkIwDQYJKoZIhvcNAQEEBQAwWjELMAkGA1UEBhMCRUMx
CzAJBgNVBAgTAkNBMQ4wDAYDVQQHEwVRdWl0bzENMAsGA1UEChMES2l0bzEfMB0G
CSqGSIb3DQEJARYQbWFpbEBob3N0LmRvbWFpbjAeFw0xNTAzMTgxNjQwMzVaFw0x
NjAzMTcxNjQwMzVaMHExCzAJBgNVBAYTAlJVMQswCQYDVQQIEwJXNTETMBEGA1UE
ChMKVm9zaG9kQXZ0bzEXMBUGA1UEAxMOdm9zaG9kLWF2dG8ucnUxJzAlBgkqhkiG
9w0BCQEWGGEua3VyaWxpbkB2b3Nob2QtYXZ0by5ydTCBnzANBgkqhkiG9w0BAQEF
AAOBjQAwgYkCgYEAvWZDC5rQnLVBadXrBxZyooVbuj3HBq+eJpt0QI/fQyc7lTe4
6yX3NJZD+WSm4tiaAUeAAeaK60j6/d9uYKR+RZpXnIO16c5Idg4kU8ogR7yBrWjL
qOgwdthhYv3PAAmYvls3ljHahqMQP09rq9LhyowYX2bhtVwEL8MUcQGOb5kCAwEA
AaOB6jCB5zAJBgNVHRMEAjAAMCwGCWCGSAGG+EIBDQQfFh1PcGVuU1NMIEdlbmVy
YXRlZCBDZXJ0aWZpY2F0ZTAdBgNVHQ4EFgQU7CRtW61XFAxtNLirHp/qfp0NBg0w
gYwGA1UdIwSBhDCBgYAUMqS7omjc+ayn3bVQEeEH56qRWxqhXqRcMFoxCzAJBgNV
BAYTAkVDMQswCQYDVQQIEwJDQTEOMAwGA1UEBxMFUXVpdG8xDTALBgNVBAoTBEtp
dG8xHzAdBgkqhkiG9w0BCQEWEG1haWxAaG9zdC5kb21haW6CCQCJYaR2+6FyODAN
BgkqhkiG9w0BAQQFAAOBgQBll/SaWV1gQxrSG55zxu0rMD3SxEIyuXN6Xpr8qr7x
p0yAT9uYiv0reXqjTClbAD01Dq/hij+TwUvNGE41+cieOyJHsIidKf9oPr672Vw5
I1JXUSlNQZnqWAMj74Rh8zoUZcZLZxtjGat6zIqdQ+sYVYyXhbWhfWL90O0ZzP1n
yQ==
-----END CERTIFICATE-----